(lp0
S'poi'
p1
aS'salary'
p2
aS'bonus'
p3
aS'restricted_stock'
p4
aS'total_payments'
p5
aS'total_stock_value'
p6
aS'exercised_stock_options'
p7
aS'from_this_person_to_poi'
p8
aS'from_poi_to_this_person'
p9
aS'long_term_incentive'
p10
aS'director_fees'
p11
aS'expenses'
p12
aS'shared_receipt_with_poi'
p13
aS'to_messages'
p14
aS'from_messages'
p15
aS'loan_advances'
p16
aS'restricted_stock_deferred'
p17
aS'bonus_salary_ratio'
p18
aS'total_poi_emails'
p19
a.